; Function Attrs: mustprogress nofree nounwind willreturn memory(write, argmem: readwrite) uwtable
define hidden void @_ZNK5ceres10ArctanLoss8EvaluateEdPd(ptr noundef nonnull readonly align 8 captures(none) dereferenceable(24) %0, double noundef %1, ptr noundef writeonly captures(none) initializes((0, 24)) %2) unnamed_addr #3 align 2 {
  %4 = fmul double %1, %1
  %5 = getelementptr inbounds nuw i8, ptr %0, i64 16
  %6 = load double, ptr %5, align 8, !tbaa !19
  %7 = tail call double @llvm.fmuladd.f64(double %4, double %6, double 1.000000e+00)
  %8 = fdiv double 1.000000e+00, %7
  %9 = getelementptr inbounds nuw i8, ptr %0, i64 8
  %10 = load double, ptr %9, align 8, !tbaa !21
  %11 = tail call double @atan2(double noundef %1, double noundef %10) #17, !tbaa !10
  %12 = fmul double %10, %11
  store double %12, ptr %2, align 8, !tbaa !3
  %13 = fcmp ogt double %8, 0x10000000000000
  %.sroa.speculated = select i1 %13, double %8, double 0x10000000000000
  %14 = getelementptr inbounds nuw i8, ptr %2, i64 8
  store double %.sroa.speculated, ptr %14, align 8, !tbaa !3
  %15 = fmul double %1, -2.000000e+00
  %16 = load double, ptr %5, align 8, !tbaa !19
  %17 = fmul double %15, %16
  %18 = fmul double %8, %8
  %19 = fmul double %18, %17
  %20 = getelementptr inbounds nuw i8, ptr %2, i64 16
  store double %19, ptr %20, align 8, !tbaa !3
  ret void
}